; Function Attrs: mustprogress uwtable
define void @_ZN10ImDrawList13AddQuadFilledERK6ImVec2S2_S2_S2_j(ptr noundef nonnull align 8 captures(none) dereferenceable(216) %0, ptr noundef nonnull readonly align 4 captures(none) dereferenceable(8) %1, ptr noundef nonnull readonly align 4 captures(none) dereferenceable(8) %2, ptr noundef nonnull readonly align 4 captures(none) dereferenceable(8) %3, ptr noundef nonnull readonly align 4 captures(none) dereferenceable(8) %4, i32 noundef %5) local_unnamed_addr #12 align 2 {
  %7 = icmp ult i32 %5, 16777216
  br i1 %7, label %122, label %8

8:                                                ; preds = %6
  %9 = getelementptr inbounds nuw i8, ptr %0, i64 80
  %10 = load i32, ptr %9, align 8, !tbaa !67
  %11 = getelementptr inbounds nuw i8, ptr %0, i64 84
  %12 = load i32, ptr %11, align 4, !tbaa !66
  %13 = icmp eq i32 %10, %12
  br i1 %13, label %14, label %._ZN8ImVectorI6ImVec2E7reserveEi.exit_crit_edge.i.i

._ZN8ImVectorI6ImVec2E7reserveEi.exit_crit_edge.i.i: ; preds = %8
  %.phi.trans.insert.i.i = getelementptr inbounds nuw i8, ptr %0, i64 88
  %.pre.i.i = load ptr, ptr %.phi.trans.insert.i.i, align 8, !tbaa !49
  br label %_ZN10ImDrawList10PathLineToERK6ImVec2.exit

14:                                               ; preds = %8
  %15 = add nsw i32 %10, 1
  %.not.i.i.i = icmp eq i32 %10, 0
  br i1 %.not.i.i.i, label %_ZNK8ImVectorI6ImVec2E14_grow_capacityEi.exit.i.i, label %16

16:                                               ; preds = %14
  %17 = sdiv i32 %10, 2
  %18 = add nsw i32 %17, %10
  br label %_ZNK8ImVectorI6ImVec2E14_grow_capacityEi.exit.i.i

_ZNK8ImVectorI6ImVec2E14_grow_capacityEi.exit.i.i: ; preds = %16, %14
  %19 = phi i32 [ %18, %16 ], [ 8, %14 ]
  %20 = tail call noundef i32 @llvm.smax.i32(i32 %19, i32 %15)
  %21 = sext i32 %20 to i64
  %22 = shl nsw i64 %21, 3
  %23 = tail call noundef ptr @_ZN5ImGui8MemAllocEm(i64 noundef %22)
  %24 = getelementptr inbounds nuw i8, ptr %0, i64 88
  %25 = load ptr, ptr %24, align 8, !tbaa !49
  %.not6.i.i.i = icmp eq ptr %25, null
  br i1 %.not6.i.i.i, label %31, label %26

26:                                               ; preds = %_ZNK8ImVectorI6ImVec2E14_grow_capacityEi.exit.i.i
  %27 = load i32, ptr %9, align 8, !tbaa !67
  %28 = sext i32 %27 to i64
  %29 = shl nsw i64 %28, 3
  tail call void @llvm.memcpy.p0.p0.i64(ptr align 4 %23, ptr nonnull align 4 %25, i64 %29, i1 false)
  %30 = load ptr, ptr %24, align 8, !tbaa !49
  tail call void @_ZN5ImGui7MemFreeEPv(ptr noundef %30)
  br label %31

31:                                               ; preds = %26, %_ZNK8ImVectorI6ImVec2E14_grow_capacityEi.exit.i.i
  store ptr %23, ptr %24, align 8, !tbaa !49
  store i32 %20, ptr %11, align 4, !tbaa !66
  %.pre3.i.i = load i32, ptr %9, align 8, !tbaa !67
  br label %_ZN10ImDrawList10PathLineToERK6ImVec2.exit

_ZN10ImDrawList10PathLineToERK6ImVec2.exit:       ; preds = %._ZN8ImVectorI6ImVec2E7reserveEi.exit_crit_edge.i.i, %31
  %32 = phi i32 [ %10, %._ZN8ImVectorI6ImVec2E7reserveEi.exit_crit_edge.i.i ], [ %.pre3.i.i, %31 ]
  %33 = phi ptr [ %.pre.i.i, %._ZN8ImVectorI6ImVec2E7reserveEi.exit_crit_edge.i.i ], [ %23, %31 ]
  %34 = sext i32 %32 to i64
  %35 = getelementptr inbounds %struct.ImVec2, ptr %33, i64 %34
  %36 = load i64, ptr %1, align 4
  store i64 %36, ptr %35, align 4
  %37 = load i32, ptr %9, align 8, !tbaa !67
  %38 = add nsw i32 %37, 1
  store i32 %38, ptr %9, align 8, !tbaa !67
  %39 = load i32, ptr %11, align 4, !tbaa !66
  %40 = icmp eq i32 %38, %39
  br i1 %40, label %41, label %._ZN8ImVectorI6ImVec2E7reserveEi.exit_crit_edge.i.i6

._ZN8ImVectorI6ImVec2E7reserveEi.exit_crit_edge.i.i6: ; preds = %_ZN10ImDrawList10PathLineToERK6ImVec2.exit
  %.phi.trans.insert.i.i7 = getelementptr inbounds nuw i8, ptr %0, i64 88
  %.pre.i.i8 = load ptr, ptr %.phi.trans.insert.i.i7, align 8, !tbaa !49
  br label %_ZN10ImDrawList10PathLineToERK6ImVec2.exit13

41:                                               ; preds = %_ZN10ImDrawList10PathLineToERK6ImVec2.exit
  %42 = add nsw i32 %37, 2
  %.not.i.i.i9 = icmp eq i32 %38, 0
  br i1 %.not.i.i.i9, label %_ZNK8ImVectorI6ImVec2E14_grow_capacityEi.exit.i.i10, label %43

43:                                               ; preds = %41
  %44 = sdiv i32 %38, 2
  %45 = add nsw i32 %44, %38
  br label %_ZNK8ImVectorI6ImVec2E14_grow_capacityEi.exit.i.i10

_ZNK8ImVectorI6ImVec2E14_grow_capacityEi.exit.i.i10: ; preds = %43, %41
  %46 = phi i32 [ %45, %43 ], [ 8, %41 ]
  %47 = tail call noundef i32 @llvm.smax.i32(i32 %46, i32 %42)
  %48 = sext i32 %47 to i64
  %49 = shl nsw i64 %48, 3
  %50 = tail call noundef ptr @_ZN5ImGui8MemAllocEm(i64 noundef %49)
  %51 = getelementptr inbounds nuw i8, ptr %0, i64 88
  %52 = load ptr, ptr %51, align 8, !tbaa !49
  %.not6.i.i.i11 = icmp eq ptr %52, null
  br i1 %.not6.i.i.i11, label %58, label %53

53:                                               ; preds = %_ZNK8ImVectorI6ImVec2E14_grow_capacityEi.exit.i.i10
  %54 = load i32, ptr %9, align 8, !tbaa !67
  %55 = sext i32 %54 to i64
  %56 = shl nsw i64 %55, 3
  tail call void @llvm.memcpy.p0.p0.i64(ptr align 4 %50, ptr nonnull align 4 %52, i64 %56, i1 false)
  %57 = load ptr, ptr %51, align 8, !tbaa !49
  tail call void @_ZN5ImGui7MemFreeEPv(ptr noundef %57)
  br label %58

58:                                               ; preds = %53, %_ZNK8ImVectorI6ImVec2E14_grow_capacityEi.exit.i.i10
  store ptr %50, ptr %51, align 8, !tbaa !49
  store i32 %47, ptr %11, align 4, !tbaa !66
  %.pre3.i.i12 = load i32, ptr %9, align 8, !tbaa !67
  br label %_ZN10ImDrawList10PathLineToERK6ImVec2.exit13

_ZN10ImDrawList10PathLineToERK6ImVec2.exit13:     ; preds = %._ZN8ImVectorI6ImVec2E7reserveEi.exit_crit_edge.i.i6, %58
  %59 = phi i32 [ %38, %._ZN8ImVectorI6ImVec2E7reserveEi.exit_crit_edge.i.i6 ], [ %.pre3.i.i12, %58 ]
  %60 = phi ptr [ %.pre.i.i8, %._ZN8ImVectorI6ImVec2E7reserveEi.exit_crit_edge.i.i6 ], [ %50, %58 ]
  %61 = sext i32 %59 to i64
  %62 = getelementptr inbounds %struct.ImVec2, ptr %60, i64 %61
  %63 = load i64, ptr %2, align 4
  store i64 %63, ptr %62, align 4
  %64 = load i32, ptr %9, align 8, !tbaa !67
  %65 = add nsw i32 %64, 1
  store i32 %65, ptr %9, align 8, !tbaa !67
  %66 = load i32, ptr %11, align 4, !tbaa !66
  %67 = icmp eq i32 %65, %66
  br i1 %67, label %68, label %._ZN8ImVectorI6ImVec2E7reserveEi.exit_crit_edge.i.i14

._ZN8ImVectorI6ImVec2E7reserveEi.exit_crit_edge.i.i14: ; preds = %_ZN10ImDrawList10PathLineToERK6ImVec2.exit13
  %.phi.trans.insert.i.i15 = getelementptr inbounds nuw i8, ptr %0, i64 88
  %.pre.i.i16 = load ptr, ptr %.phi.trans.insert.i.i15, align 8, !tbaa !49
  br label %_ZN10ImDrawList10PathLineToERK6ImVec2.exit21

68:                                               ; preds = %_ZN10ImDrawList10PathLineToERK6ImVec2.exit13
  %69 = add nsw i32 %64, 2
  %.not.i.i.i17 = icmp eq i32 %65, 0
  br i1 %.not.i.i.i17, label %_ZNK8ImVectorI6ImVec2E14_grow_capacityEi.exit.i.i18, label %70

70:                                               ; preds = %68
  %71 = sdiv i32 %65, 2
  %72 = add nsw i32 %71, %65
  br label %_ZNK8ImVectorI6ImVec2E14_grow_capacityEi.exit.i.i18

_ZNK8ImVectorI6ImVec2E14_grow_capacityEi.exit.i.i18: ; preds = %70, %68
  %73 = phi i32 [ %72, %70 ], [ 8, %68 ]
  %74 = tail call noundef i32 @llvm.smax.i32(i32 %73, i32 %69)
  %75 = sext i32 %74 to i64
  %76 = shl nsw i64 %75, 3
  %77 = tail call noundef ptr @_ZN5ImGui8MemAllocEm(i64 noundef %76)
  %78 = getelementptr inbounds nuw i8, ptr %0, i64 88
  %79 = load ptr, ptr %78, align 8, !tbaa !49
  %.not6.i.i.i19 = icmp eq ptr %79, null
  br i1 %.not6.i.i.i19, label %85, label %80

80:                                               ; preds = %_ZNK8ImVectorI6ImVec2E14_grow_capacityEi.exit.i.i18
  %81 = load i32, ptr %9, align 8, !tbaa !67
  %82 = sext i32 %81 to i64
  %83 = shl nsw i64 %82, 3
  tail call void @llvm.memcpy.p0.p0.i64(ptr align 4 %77, ptr nonnull align 4 %79, i64 %83, i1 false)
  %84 = load ptr, ptr %78, align 8, !tbaa !49
  tail call void @_ZN5ImGui7MemFreeEPv(ptr noundef %84)
  br label %85

85:                                               ; preds = %80, %_ZNK8ImVectorI6ImVec2E14_grow_capacityEi.exit.i.i18
  store ptr %77, ptr %78, align 8, !tbaa !49
  store i32 %74, ptr %11, align 4, !tbaa !66
  %.pre3.i.i20 = load i32, ptr %9, align 8, !tbaa !67
  br label %_ZN10ImDrawList10PathLineToERK6ImVec2.exit21

_ZN10ImDrawList10PathLineToERK6ImVec2.exit21:     ; preds = %._ZN8ImVectorI6ImVec2E7reserveEi.exit_crit_edge.i.i14, %85
  %86 = phi i32 [ %65, %._ZN8ImVectorI6ImVec2E7reserveEi.exit_crit_edge.i.i14 ], [ %.pre3.i.i20, %85 ]
  %87 = phi ptr [ %.pre.i.i16, %._ZN8ImVectorI6ImVec2E7reserveEi.exit_crit_edge.i.i14 ], [ %77, %85 ]
  %88 = sext i32 %86 to i64
  %89 = getelementptr inbounds %struct.ImVec2, ptr %87, i64 %88
  %90 = load i64, ptr %3, align 4
  store i64 %90, ptr %89, align 4
  %91 = load i32, ptr %9, align 8, !tbaa !67
  %92 = add nsw i32 %91, 1
  store i32 %92, ptr %9, align 8, !tbaa !67
  %93 = load i32, ptr %11, align 4, !tbaa !66
  %94 = icmp eq i32 %92, %93
  br i1 %94, label %95, label %._ZN8ImVectorI6ImVec2E7reserveEi.exit_crit_edge.i.i22

._ZN8ImVectorI6ImVec2E7reserveEi.exit_crit_edge.i.i22: ; preds = %_ZN10ImDrawList10PathLineToERK6ImVec2.exit21
  %.phi.trans.insert.i.i23 = getelementptr inbounds nuw i8, ptr %0, i64 88
  %.pre.i.i24 = load ptr, ptr %.phi.trans.insert.i.i23, align 8, !tbaa !49
  br label %_ZN10ImDrawList10PathLineToERK6ImVec2.exit29

95:                                               ; preds = %_ZN10ImDrawList10PathLineToERK6ImVec2.exit21
  %96 = add nsw i32 %91, 2
  %.not.i.i.i25 = icmp eq i32 %92, 0
  br i1 %.not.i.i.i25, label %_ZNK8ImVectorI6ImVec2E14_grow_capacityEi.exit.i.i26, label %97

97:                                               ; preds = %95
  %98 = sdiv i32 %92, 2
  %99 = add nsw i32 %98, %92
  br label %_ZNK8ImVectorI6ImVec2E14_grow_capacityEi.exit.i.i26

_ZNK8ImVectorI6ImVec2E14_grow_capacityEi.exit.i.i26: ; preds = %97, %95
  %100 = phi i32 [ %99, %97 ], [ 8, %95 ]
  %101 = tail call noundef i32 @llvm.smax.i32(i32 %100, i32 %96)
  %102 = sext i32 %101 to i64
  %103 = shl nsw i64 %102, 3
  %104 = tail call noundef ptr @_ZN5ImGui8MemAllocEm(i64 noundef %103)
  %105 = getelementptr inbounds nuw i8, ptr %0, i64 88
  %106 = load ptr, ptr %105, align 8, !tbaa !49
  %.not6.i.i.i27 = icmp eq ptr %106, null
  br i1 %.not6.i.i.i27, label %112, label %107

107:                                              ; preds = %_ZNK8ImVectorI6ImVec2E14_grow_capacityEi.exit.i.i26
  %108 = load i32, ptr %9, align 8, !tbaa !67
  %109 = sext i32 %108 to i64
  %110 = shl nsw i64 %109, 3
  tail call void @llvm.memcpy.p0.p0.i64(ptr align 4 %104, ptr nonnull align 4 %106, i64 %110, i1 false)
  %111 = load ptr, ptr %105, align 8, !tbaa !49
  tail call void @_ZN5ImGui7MemFreeEPv(ptr noundef %111)
  br label %112

112:                                              ; preds = %107, %_ZNK8ImVectorI6ImVec2E14_grow_capacityEi.exit.i.i26
  store ptr %104, ptr %105, align 8, !tbaa !49
  store i32 %101, ptr %11, align 4, !tbaa !66
  %.pre3.i.i28 = load i32, ptr %9, align 8, !tbaa !67
  br label %_ZN10ImDrawList10PathLineToERK6ImVec2.exit29

_ZN10ImDrawList10PathLineToERK6ImVec2.exit29:     ; preds = %._ZN8ImVectorI6ImVec2E7reserveEi.exit_crit_edge.i.i22, %112
  %113 = phi i32 [ %92, %._ZN8ImVectorI6ImVec2E7reserveEi.exit_crit_edge.i.i22 ], [ %.pre3.i.i28, %112 ]
  %114 = phi ptr [ %.pre.i.i24, %._ZN8ImVectorI6ImVec2E7reserveEi.exit_crit_edge.i.i22 ], [ %104, %112 ]
  %115 = sext i32 %113 to i64
  %116 = getelementptr inbounds %struct.ImVec2, ptr %114, i64 %115
  %117 = load i64, ptr %4, align 4
  store i64 %117, ptr %116, align 4
  %118 = load i32, ptr %9, align 8, !tbaa !67
  %119 = add nsw i32 %118, 1
  store i32 %119, ptr %9, align 8, !tbaa !67
  %120 = getelementptr inbounds nuw i8, ptr %0, i64 88
  %121 = load ptr, ptr %120, align 8, !tbaa !135
  tail call void @_ZN10ImDrawList19AddConvexPolyFilledEPK6ImVec2ij(ptr noundef nonnull align 8 dereferenceable(216) %0, ptr noundef %121, i32 noundef %119, i32 noundef %5)
  store i32 0, ptr %9, align 8, !tbaa !134
  br label %122

122:                                              ; preds = %6, %_ZN10ImDrawList10PathLineToERK6ImVec2.exit29
  ret void
}